Certificate:
    Data:
        Version: 3 (0x2)
        Serial Number: 1 (0x1)
        Signature Algorithm: sha256WithRSAEncryption
        Issuer: C=IN, ST=BIHAR, O=THEBOYZ, CN=SubCA/emailAddress=ashishizofficial@gmail.com
        Validity
            Not Before: Jun 10 02:22:57 2023 GMT
            Not After : Jun  9 02:22:57 2024 GMT
        Subject: C=IN, ST=BIHAR, O=THEBOYZ, CN=www.theboyz.in/emailAddress=init.ashish@gmail.com
        Subject Public Key Info:
            Public Key Algorithm: rsaEncryption
                Public-Key: (2048 bit)
                Modulus:
                    00:8a:36:27:cd:b5:6b:f5:f6:55:b4:3c:5e:e2:cb:
                    ba:e2:2b:da:dd:73:21:18:86:81:e8:f8:ae:a3:86:
                    dc:89:84:0a:f6:88:1e:a2:de:e7:63:8a:15:72:29:
                    d2:7c:75:fd:c5:c1:4d:fc:23:a7:d6:14:b7:02:db:
                    6b:0c:2e:4f:b0:22:e7:5d:59:10:cc:47:c2:fc:b6:
                    f7:23:73:48:7a:1c:59:53:4c:dc:3c:1f:31:50:9e:
                    84:06:d1:a0:0c:70:c9:72:b5:fb:b4:91:9e:87:9b:
                    07:8d:c5:ee:fb:b6:eb:a0:fc:22:4e:95:46:11:ac:
                    cb:d2:a4:35:fd:47:e5:6d:8e:27:76:62:4a:85:e1:
                    31:0d:cc:78:f4:f1:85:f6:0f:09:a1:27:4b:a5:15:
                    68:d7:ec:94:b9:08:5e:b4:0a:4d:9d:a0:22:d1:6a:
                    91:b8:5c:ba:12:01:f6:67:5e:9e:eb:1b:e9:ae:e7:
                    c8:f3:34:b7:27:7f:1e:e5:56:0e:35:05:e5:08:1a:
                    e4:b4:ba:bd:6f:a3:46:a8:82:77:4a:65:9a:28:6e:
                    ad:f8:58:08:4c:a3:5b:c2:1f:e7:dc:e2:1b:0d:5e:
                    18:38:12:6f:5b:31:ad:f6:f9:13:06:ee:67:48:39:
                    28:bb:2e:8e:82:62:59:91:ec:1a:42:65:dc:5b:b9:
                    68:49
                Exponent: 65537 (0x10001)
        X509v3 extensions:
            X509v3 Basic Constraints: 
                CA:FALSE
            X509v3 Key Usage: 
                Digital Signature, Non Repudiation, Key Encipherment
            X509v3 Subject Key Identifier: 
                C0:6B:0A:3B:67:01:6B:73:4B:BF:70:BD:FC:9F:61:46:7A:D5:67:66
            X509v3 Authority Key Identifier: 
                FB:60:EC:6C:FD:FB:FE:C0:E9:89:7D:F3:56:A4:F5:09:35:F9:5F:AD
    Signature Algorithm: sha256WithRSAEncryption
    Signature Value:
        69:e3:3f:c3:ca:e2:96:67:7b:1a:c4:35:0e:da:f0:0b:35:1c:
        1e:30:c1:12:8f:ab:cc:28:7e:f2:2f:94:b2:0d:fe:f6:ee:39:
        de:86:2a:9c:3c:af:ca:25:ed:7b:29:6e:47:d3:55:4e:d9:64:
        cf:49:b3:e0:9c:4e:2a:e0:d0:ce:f5:15:1f:06:7e:1b:a3:80:
        4e:6b:20:32:d7:4f:7b:0f:f6:39:76:c8:45:86:97:d6:67:6a:
        6d:ce:d9:3e:91:fa:48:08:59:83:b6:e0:52:b9:24:ef:e3:42:
        7d:5d:f2:a3:6e:6a:70:b1:58:60:96:ef:2d:e6:6c:2e:bf:5e:
        67:a8:e7:be:81:30:1f:76:57:00:e6:58:3f:ad:b2:43:c8:09:
        e4:1d:fd:92:b0:0e:8b:cb:3d:12:24:5a:fb:64:4a:0a:ea:99:
        91:b7:fc:fe:2b:da:2e:d2:ad:52:b6:f3:43:a1:dc:6a:ef:49:
        9f:b0:d2:1e:ed:e7:05:6c:81:6c:7c:99:19:26:1d:98:9d:b8:
        16:fc:90:8b:f6:dd:dd:64:8a:11:76:14:4c:7f:c8:99:d9:a0:
        b0:0e:6c:e0:55:21:02:81:aa:57:35:17:70:67:0b:0d:b0:7e:
        3d:04:13:f0:35:f3:08:3b:92:2c:d7:e6:e1:b5:ea:e4:4f:55:
        08:db:e6:18:0c:2e:68:79:74:53:a0:79:0c:1d:8b:e8:89:a2:
        a3:95:a2:5f:0a:f4:19:50:1b:1b:bf:9a:98:30:6a:82:b7:cf:
        ff:d1:84:4b:94:50:3d:f5:56:7e:bc:d3:f7:55:16:60:d2:57:
        c7:71:6d:6d:06:b5:21:ed:7c:ba:32:12:07:63:24:2c:ea:b5:
        b1:9e:07:ba:1f:23:79:aa:d9:a4:36:57:91:7e:06:cb:93:4a:
        6a:2a:a2:73:1d:a1:ab:e4:f4:f2:12:06:21:d5:eb:5f:5d:d5:
        01:53:f6:e3:99:19:4f:98:c3:fa:ac:72:39:32:ee:5b:af:21:
        96:49:5b:ec:67:96:1e:92:d2:51:b0:3d:97:94:5d:31:90:08:
        46:da:f7:20:84:5b:8e:71:79:5d:3a:3c:22:8c:53:28:ca:35:
        dd:7d:8d:55:dc:7e:a9:ae:70:5e:8e:02:28:19:e7:fa:d6:fb:
        66:1c:56:a6:0e:97:d4:b0:25:ca:57:88:12:d2:0d:58:c8:e6:
        a3:32:e3:23:74:34:b1:50:c8:bd:ed:8f:fd:77:d8:ad:88:5c:
        76:0b:5c:e1:70:70:c8:09:ba:24:be:8c:3a:74:1a:cc:8c:b1:
        03:75:3f:5d:1a:c7:21:24:10:c7:5a:24:9e:8e:73:36:35:a5:
        b6:ea:6f:af:c8:3e:5f:ed
-----BEGIN CERTIFICATE-----
MIIErTCCApWgAwIBAgIBATANBgkqhkiG9w0BAQsFADBqMQswCQYDVQQGEwJJTjEO
MAwGA1UECAwFQklIQVIxEDAOBgNVBAoMB1RIRUJPWVoxDjAMBgNVBAMMBVN1YkNB
MSkwJwYJKoZIhvcNAQkBFhphc2hpc2hpem9mZmljaWFsQGdtYWlsLmNvbTAeFw0y
MzA2MTAwMjIyNTdaFw0yNDA2MDkwMjIyNTdaMG4xCzAJBgNVBAYTAklOMQ4wDAYD
VQQIDAVCSUhBUjEQMA4GA1UECgwHVEhFQk9ZWjEXMBUGA1UEAwwOd3d3LnRoZWJv
eXouaW4xJDAiBgkqhkiG9w0BCQEWFWluaXQuYXNoaXNoQGdtYWlsLmNvbTCCASIw
DQYJKoZIhvcNAQEBBQADggEPADCCAQoCggEBAIo2J821a/X2VbQ8XuLLuuIr2t1z
IRiGgej4rqOG3ImECvaIHqLe52OKFXIp0nx1/cXBTfwjp9YUtwLbawwuT7Ai511Z
EMxHwvy29yNzSHocWVNM3DwfMVCehAbRoAxwyXK1+7SRnoebB43F7vu266D8Ik6V
RhGsy9KkNf1H5W2OJ3ZiSoXhMQ3MePTxhfYPCaEnS6UVaNfslLkIXrQKTZ2gItFq
kbhcuhIB9mdenusb6a7nyPM0tyd/HuVWDjUF5Qga5LS6vW+jRqiCd0plmihurfhY
CEyjW8If59ziGw1eGDgSb1sxrfb5EwbuZ0g5KLsujoJiWZHsGkJl3Fu5aEkCAwEA
AaNaMFgwCQYDVR0TBAIwADALBgNVHQ8EBAMCBeAwHQYDVR0OBBYEFMBrCjtnAWtz
S79wvfyfYUZ61WdmMB8GA1UdIwQYMBaAFPtg7Gz9+/7A6Yl981ak9Qk1+V+tMA0G
CSqGSIb3DQEBCwUAA4ICAQBp4z/DyuKWZ3saxDUO2vALNRweMMESj6vMKH7yL5Sy
Df727jnehiqcPK/KJe17KW5H01VO2WTPSbPgnE4q4NDO9RUfBn4bo4BOayAy1097
D/Y5dshFhpfWZ2ptztk+kfpICFmDtuBSuSTv40J9XfKjbmpwsVhglu8t5mwuv15n
qOe+gTAfdlcA5lg/rbJDyAnkHf2SsA6Lyz0SJFr7ZEoK6pmRt/z+K9ou0q1StvND
odxq70mfsNIe7ecFbIFsfJkZJh2YnbgW/JCL9t3dZIoRdhRMf8iZ2aCwDmzgVSEC
gapXNRdwZwsNsH49BBPwNfMIO5Is1+bhterkT1UI2+YYDC5oeXRToHkMHYvoiaKj
laJfCvQZUBsbv5qYMGqCt8//0YRLlFA99VZ+vNP3VRZg0lfHcW1tBrUh7Xy6MhIH
YyQs6rWxnge6HyN5qtmkNleRfgbLk0pqKqJzHaGr5PTyEgYh1etfXdUBU/bjmRlP
mMP6rHI5Mu5bryGWSVvsZ5YektJRsD2XlF0xkAhG2vcghFuOcXldOjwijFMoyjXd
fY1V3H6prnBejgIoGef61vtmHFamDpfUsCXKV4gS0g1YyOajMuMjdDSxUMi97Y/9
d9itiFx2C1zhcHDICbokvow6dBrMjLEDdT9dGschJBDHWiSejnM2NaW26m+vyD5f
7Q==
-----END CERTIFICATE-----
