Certificate:
    Data:
        Version: 3 (0x2)
        Serial Number: 1 (0x1)
        Signature Algorithm: sha256WithRSAEncryption
        Issuer: C=IN, ST=BIHAR, L=BHAGALPUR, O=THEBOYZ, CN=RootCA/emailAddress=get.mail.ashish@gmail.com
        Validity
            Not Before: Jun 10 02:15:58 2023 GMT
            Not After : Jun  7 02:15:58 2033 GMT
        Subject: C=IN, ST=BIHAR, O=THEBOYZ, CN=SubCA/emailAddress=ashishizofficial@gmail.com
        Subject Public Key Info:
            Public Key Algorithm: rsaEncryption
                Public-Key: (4096 bit)
                Modulus:
                    00:8a:61:20:b8:57:87:97:3c:3f:1c:e1:29:8d:af:
                    a2:2f:05:1b:19:10:66:55:29:84:44:53:cf:92:d7:
                    fa:52:0c:1f:f5:4f:30:a5:ef:80:ba:5f:d0:de:5e:
                    3f:70:aa:6a:a9:5e:7a:31:e1:2e:c2:e3:df:7c:45:
                    8c:9e:57:11:8e:97:65:93:a5:41:9f:50:20:c9:12:
                    b6:b6:85:2e:66:d5:4f:5f:f8:90:67:01:b5:db:e5:
                    0c:c6:6c:fe:4a:bc:c2:c9:95:85:8c:d7:32:01:fa:
                    78:54:4d:ec:da:b5:0e:21:23:cd:bc:a9:65:00:39:
                    7f:9b:f7:12:a4:a6:af:03:06:89:ff:d9:cb:fd:cb:
                    08:63:59:fd:f2:c2:5e:94:a1:0b:90:a3:cd:d5:ab:
                    45:96:1e:7c:c5:1b:85:f3:6c:3d:de:07:bf:78:5f:
                    a1:9a:9d:a8:f5:fa:68:04:7b:de:0b:86:7f:54:a7:
                    7e:e4:69:fa:fc:50:c4:20:bf:ec:be:b5:85:a2:31:
                    83:3f:bf:9c:b6:34:d7:2f:04:13:f7:49:88:c6:9c:
                    1c:74:0e:27:ee:e6:5f:d9:bb:90:d0:37:bf:ec:48:
                    98:9b:d2:9a:5b:13:6e:61:b4:5f:b7:20:35:3c:b6:
                    16:1d:a1:9b:38:f7:dd:4c:88:b7:aa:49:0c:d0:21:
                    67:18:33:15:e8:e6:83:43:ef:7b:dc:dd:67:ae:f0:
                    77:d0:43:4f:27:3a:d2:07:00:1b:35:28:d0:95:88:
                    68:e5:0d:a6:96:b9:3b:9d:e6:a0:fe:95:e0:c5:22:
                    b5:14:81:d1:5b:0e:17:dd:f3:b1:1e:1a:29:47:29:
                    e9:94:cf:5f:64:10:4c:89:34:46:7b:01:c9:10:47:
                    be:20:51:33:d8:fd:8a:fe:21:d9:30:34:df:8b:2a:
                    80:18:25:25:e3:2b:01:24:fd:33:04:75:fe:fa:f6:
                    60:b3:ae:8a:a9:17:65:78:df:93:af:a7:17:90:93:
                    00:e6:65:38:9e:a6:74:b9:4a:ed:8c:87:e7:79:a6:
                    66:6e:4f:26:51:b8:a2:46:a6:b3:40:69:5e:6b:39:
                    62:a1:14:94:76:3a:13:62:94:19:b2:c5:aa:75:7c:
                    3d:fc:5f:85:dc:70:19:52:47:c3:da:09:6b:e6:8a:
                    a4:08:ce:4a:ce:50:79:c5:35:9d:ef:af:ce:3e:68:
                    ea:9b:d2:38:95:26:95:ae:11:ac:ba:08:58:78:c5:
                    45:7b:d8:a3:00:c7:0b:0e:de:ef:ca:d5:d8:f7:47:
                    0c:af:64:92:fb:cc:13:32:82:fa:93:27:66:e6:48:
                    31:bd:4f:bf:ce:f1:3e:9d:88:44:d5:d1:46:17:2d:
                    dc:f4:bb
                Exponent: 65537 (0x10001)
        X509v3 extensions:
            X509v3 Subject Key Identifier: 
                FB:60:EC:6C:FD:FB:FE:C0:E9:89:7D:F3:56:A4:F5:09:35:F9:5F:AD
            X509v3 Authority Key Identifier: 
                AF:CB:DA:46:3B:8B:29:80:5F:34:1E:50:0D:A8:34:D5:20:EB:38:30
            X509v3 Basic Constraints: critical
                CA:TRUE, pathlen:0
    Signature Algorithm: sha256WithRSAEncryption
    Signature Value:
        23:7d:92:e9:57:02:b7:5c:68:58:81:c8:77:79:47:dd:d7:6b:
        63:38:07:c2:45:00:93:fb:f6:91:53:b9:73:11:67:40:7f:a4:
        e0:30:d1:d0:92:c7:24:6c:2d:ca:17:44:30:9b:a0:79:28:34:
        0f:5a:bb:59:bc:08:b1:eb:da:9a:59:64:b1:74:6c:0a:2c:6f:
        79:ae:67:49:75:ae:b8:ca:19:4a:60:c9:a2:a3:ff:52:bf:2c:
        ed:51:67:2b:e3:db:50:32:6c:7f:2b:63:39:34:c7:81:f1:45:
        93:f5:39:c9:d3:9e:90:4a:9b:d9:db:be:52:2f:c9:e3:08:e2:
        ce:81:d0:87:2a:e6:14:bf:5a:4a:af:9a:09:3e:c6:b1:2d:99:
        ca:70:c9:df:6a:e7:68:3b:a9:12:2a:c8:c0:b3:33:e0:c3:1a:
        97:9e:4d:9e:c0:af:4b:41:78:79:11:2d:b2:81:fd:a6:ee:82:
        ad:fc:57:3b:6e:fd:a2:a9:a6:52:fc:2d:68:cb:8a:0d:9b:bb:
        3e:f1:bb:a9:82:53:8a:a1:3f:06:33:c4:9d:29:d8:89:97:30:
        29:61:bd:26:98:15:36:fe:1c:ac:a3:4a:0b:10:2b:af:de:4a:
        1a:10:d1:4c:e8:09:f3:25:73:2c:aa:99:08:dd:e1:5a:b5:05:
        91:f6:30:8e:02:7d:ed:52:07:72:49:b4:e5:6f:62:28:74:75:
        41:cc:90:5d:0b:8c:a7:fd:40:56:b9:4b:89:e2:95:f8:4e:62:
        f2:3c:ca:9c:9c:d1:16:12:ce:df:54:5c:c0:38:bf:b9:57:75:
        0d:b7:54:7a:d8:42:22:d8:b2:78:b2:36:b8:14:8d:c7:60:c0:
        74:92:b7:4c:7b:3b:da:52:4b:f5:e6:3a:30:81:0e:8a:ce:72:
        30:17:18:8c:39:ca:96:51:df:80:66:ef:88:5f:62:8e:2a:b6:
        1a:b6:db:37:9e:ab:eb:fc:f5:00:4a:79:ed:0d:c4:67:ea:07:
        f4:f0:00:10:f1:a8:74:ec:06:70:52:0a:36:da:ac:e3:d8:8c:
        de:67:2c:b5:83:a9:5a:04:6e:cf:46:59:a8:a2:65:7d:36:32:
        71:02:75:41:fd:31:0f:38:26:38:ad:be:e5:2a:2e:dd:4a:d4:
        2c:0c:a5:15:97:fc:25:5f:51:25:bd:81:de:43:5d:fd:48:69:
        10:30:4d:e4:fe:6a:47:6f:77:e7:3a:c9:cb:a1:f6:f8:81:60:
        44:d5:fb:43:db:45:4b:82:38:ba:ad:ef:b6:0b:f2:03:e4:9a:
        56:6c:b5:70:76:f7:df:7c:5f:6a:3f:5b:65:38:86:83:82:89:
        e0:3f:41:5a:66:da:85:8a
-----BEGIN CERTIFICATE-----
MIIFuTCCA6GgAwIBAgIBATANBgkqhkiG9w0BAQsFADB+MQswCQYDVQQGEwJJTjEO
MAwGA1UECAwFQklIQVIxEjAQBgNVBAcMCUJIQUdBTFBVUjEQMA4GA1UECgwHVEhF
Qk9ZWjEPMA0GA1UEAwwGUm9vdENBMSgwJgYJKoZIhvcNAQkBFhlnZXQubWFpbC5h
c2hpc2hAZ21haWwuY29tMB4XDTIzMDYxMDAyMTU1OFoXDTMzMDYwNzAyMTU1OFow
ajELMAkGA1UEBhMCSU4xDjAMBgNVBAgMBUJJSEFSMRAwDgYDVQQKDAdUSEVCT1la
MQ4wDAYDVQQDDAVTdWJDQTEpMCcGCSqGSIb3DQEJARYaYXNoaXNoaXpvZmZpY2lh
bEBnbWFpbC5jb20wggIiMA0GCSqGSIb3DQEBAQUAA4ICDwAwggIKAoICAQCKYSC4
V4eXPD8c4SmNr6IvBRsZEGZVKYREU8+S1/pSDB/1TzCl74C6X9DeXj9wqmqpXnox
4S7C4998RYyeVxGOl2WTpUGfUCDJEra2hS5m1U9f+JBnAbXb5QzGbP5KvMLJlYWM
1zIB+nhUTezatQ4hI828qWUAOX+b9xKkpq8DBon/2cv9ywhjWf3ywl6UoQuQo83V
q0WWHnzFG4XzbD3eB794X6Ganaj1+mgEe94Lhn9Up37kafr8UMQgv+y+tYWiMYM/
v5y2NNcvBBP3SYjGnBx0Difu5l/Zu5DQN7/sSJib0ppbE25htF+3IDU8thYdoZs4
991MiLeqSQzQIWcYMxXo5oND73vc3Weu8HfQQ08nOtIHABs1KNCViGjlDaaWuTud
5qD+leDFIrUUgdFbDhfd87EeGilHKemUz19kEEyJNEZ7AckQR74gUTPY/Yr+Idkw
NN+LKoAYJSXjKwEk/TMEdf769mCzroqpF2V435OvpxeQkwDmZTiepnS5Su2Mh+d5
pmZuTyZRuKJGprNAaV5rOWKhFJR2OhNilBmyxap1fD38X4XccBlSR8PaCWvmiqQI
zkrOUHnFNZ3vr84+aOqb0jiVJpWuEay6CFh4xUV72KMAxwsO3u/K1dj3RwyvZJL7
zBMygvqTJ2bmSDG9T7/O8T6diETV0UYXLdz0uwIDAQABo1YwVDAdBgNVHQ4EFgQU
+2DsbP37/sDpiX3zVqT1CTX5X60wHwYDVR0jBBgwFoAUr8vaRjuLKYBfNB5QDag0
1SDrODAwEgYDVR0TAQH/BAgwBgEB/wIBADANBgkqhkiG9w0BAQsFAAOCAgEAI32S
6VcCt1xoWIHId3lH3ddrYzgHwkUAk/v2kVO5cxFnQH+k4DDR0JLHJGwtyhdEMJug
eSg0D1q7WbwIsevamllksXRsCixvea5nSXWuuMoZSmDJoqP/Ur8s7VFnK+PbUDJs
fytjOTTHgfFFk/U5ydOekEqb2du+Ui/J4wjizoHQhyrmFL9aSq+aCT7GsS2ZynDJ
32rnaDupEirIwLMz4MMal55NnsCvS0F4eREtsoH9pu6CrfxXO279oqmmUvwtaMuK
DZu7PvG7qYJTiqE/BjPEnSnYiZcwKWG9JpgVNv4crKNKCxArr95KGhDRTOgJ8yVz
LKqZCN3hWrUFkfYwjgJ97VIHckm05W9iKHR1QcyQXQuMp/1AVrlLieKV+E5i8jzK
nJzRFhLO31RcwDi/uVd1DbdUethCItiyeLI2uBSNx2DAdJK3THs72lJL9eY6MIEO
is5yMBcYjDnKllHfgGbviF9ijiq2GrbbN56r6/z1AEp57Q3EZ+oH9PAAEPGodOwG
cFIKNtqs49iM3mcstYOpWgRuz0ZZqKJlfTYycQJ1Qf0xDzgmOK2+5Sou3UrULAyl
FZf8JV9RJb2B3kNd/UhpEDBN5P5qR2935zrJy6H2+IFgRNX7Q9tFS4I4uq3vtgvy
A+SaVmy1cHb333xfaj9bZTiGg4KJ4D9BWmbahYo=
-----END CERTIFICATE-----
